target datalayout = "e-m:e-p270:32:32-p271:32:32-p272:64:64-i64:64-i128:128-f80:128-n8:16:32:64-S128"
target triple = "x86_64-pc-linux-gnu"

%struct.AVChannelLayout = type { i32, i32, %union.anon, ptr }
%union.anon = type { i64 }
%struct.AVCodecContext = type { ptr, i32, i32, ptr, i32, i32, ptr, ptr, ptr, i64, i32, i32, ptr, i32, %struct.AVRational, %struct.AVRational, %struct.AVRational, i32, i32, i32, i32, i32, %struct.AVRational, i32, i32, i32, i32, i32, i32, i32, i32, i32, i32, i32, ptr, ptr, i32, float, float, float, float, float, float, float, float, float, i32, i32, i32, i32, i32, i32, i32, i32, i32, i32, i32, i32, ptr, ptr, ptr, i32, i32, i32, i32, i32, i32, i32, i32, i32, i32, %struct.AVChannelLayout, i32, i32, i32, i32, i32, i32, i32, i32, ptr, i32, i32, i32, float, float, i32, i32, i32, i32, i32, ptr, i64, i64, float, float, i32, i32, ptr, ptr, i32, i32, i32, i32, i32, ptr, ptr, ptr, ptr, i32, i32, [8 x i64], i32, i32, i32, i32, i32, i32, i32, ptr, ptr, i32, i32, i32, i32, i32, i32, i32, i32, i32, i32, ptr, ptr, i32, i32, ptr, ptr, ptr, ptr, i32, i32, i64, i32, i32, i64, ptr, i64, ptr, i32, ptr, i32 }
%struct.AVRational = type { i32, i32 }

; Function Attrs: nounwind uwtable
define void @ff_flac_set_channel_layout(ptr noundef %0, i32 noundef %1) #0 {
  %3 = alloca ptr, align 8
  %4 = alloca i32, align 4
  %5 = alloca %struct.AVChannelLayout, align 8
  store ptr %0, ptr %3, align 8, !tbaa !32
  store i32 %1, ptr %4, align 4, !tbaa !12
  %6 = load i32, ptr %4, align 4, !tbaa !12
  %7 = load ptr, ptr %3, align 8, !tbaa !32
  %8 = getelementptr inbounds nuw %struct.AVCodecContext, ptr %7, i32 0, i32 71
  %9 = getelementptr inbounds nuw %struct.AVChannelLayout, ptr %8, i32 0, i32 1
  %10 = load i32, ptr %9, align 4, !tbaa !55
  %11 = icmp eq i32 %6, %10
  br i1 %11, label %12, label %19

12:                                               ; preds = %2
  %13 = load ptr, ptr %3, align 8, !tbaa !32
  %14 = getelementptr inbounds nuw %struct.AVCodecContext, ptr %13, i32 0, i32 71
  %15 = getelementptr inbounds nuw %struct.AVChannelLayout, ptr %14, i32 0, i32 0
  %16 = load i32, ptr %15, align 8, !tbaa !56
  %17 = icmp ne i32 %16, 0
  br i1 %17, label %18, label %19

18:                                               ; preds = %12
  br label %40

19:                                               ; preds = %12, %2
  %20 = load ptr, ptr %3, align 8, !tbaa !32
  %21 = getelementptr inbounds nuw %struct.AVCodecContext, ptr %20, i32 0, i32 71
  call void @av_channel_layout_uninit(ptr noundef %21)
  %22 = load i32, ptr %4, align 4, !tbaa !12
  %23 = sext i32 %22 to i64
  %24 = icmp ule i64 %23, 8
  br i1 %24, label %25, label %32

25:                                               ; preds = %19
  %26 = load ptr, ptr %3, align 8, !tbaa !32
  %27 = getelementptr inbounds nuw %struct.AVCodecContext, ptr %26, i32 0, i32 71
  %28 = load i32, ptr %4, align 4, !tbaa !12
  %29 = sub nsw i32 %28, 1
  %30 = sext i32 %29 to i64
  %31 = getelementptr inbounds [8 x %struct.AVChannelLayout], ptr @flac_channel_layouts, i64 0, i64 %30
  call void @llvm.memcpy.p0.p0.i64(ptr align 8 %27, ptr align 8 %31, i64 24, i1 false), !tbaa.struct !57
  br label %40

32:                                               ; preds = %19
  %33 = load ptr, ptr %3, align 8, !tbaa !32
  %34 = getelementptr inbounds nuw %struct.AVCodecContext, ptr %33, i32 0, i32 71
  %35 = getelementptr inbounds nuw %struct.AVChannelLayout, ptr %5, i32 0, i32 0
  store i32 0, ptr %35, align 8, !tbaa !58
  %36 = getelementptr inbounds nuw %struct.AVChannelLayout, ptr %5, i32 0, i32 1
  %37 = load i32, ptr %4, align 4, !tbaa !12
  store i32 %37, ptr %36, align 4, !tbaa !59
  %38 = getelementptr inbounds nuw %struct.AVChannelLayout, ptr %5, i32 0, i32 2
  call void @llvm.memset.p0.i64(ptr align 8 %38, i8 0, i64 8, i1 false)
  %39 = getelementptr inbounds nuw %struct.AVChannelLayout, ptr %5, i32 0, i32 3
  store ptr null, ptr %39, align 8, !tbaa !60
  call void @llvm.memcpy.p0.p0.i64(ptr align 8 %34, ptr align 8 %5, i64 24, i1 false), !tbaa.struct !57
  br label %40

40:                                               ; preds = %18, %32, %25
  ret void
}