; Function Attrs: nounwind uwtable
define void @ff_flac_set_channel_layout(ptr noundef %0, i32 noundef %1) local_unnamed_addr #0 {
  %3 = getelementptr inbounds nuw i8, ptr %0, i64 352
  %4 = getelementptr inbounds nuw i8, ptr %0, i64 356
  %5 = load i32, ptr %4, align 4, !tbaa !45
  %6 = icmp eq i32 %1, %5
  br i1 %6, label %7, label %9

7:                                                ; preds = %2
  %8 = load i32, ptr %3, align 8, !tbaa !46
  %.not = icmp eq i32 %8, 0
  br i1 %.not, label %9, label %16

9:                                                ; preds = %7, %2
  tail call void @av_channel_layout_uninit(ptr noundef nonnull %3) #6
  %10 = icmp ult i32 %1, 9
  br i1 %10, label %11, label %15

11:                                               ; preds = %9
  %12 = add nsw i32 %1, -1
  %13 = sext i32 %12 to i64
  %14 = getelementptr inbounds [8 x %struct.AVChannelLayout], ptr @flac_channel_layouts, i64 0, i64 %13
  tail call void @llvm.memcpy.p0.p0.i64(ptr noundef nonnull align 8 dereferenceable(24) %3, ptr noundef nonnull align 8 dereferenceable(24) %14, i64 24, i1 false), !tbaa.struct !47
  br label %16

15:                                               ; preds = %9
  store i32 0, ptr %3, align 8, !tbaa !23
  store i32 %1, ptr %4, align 4, !tbaa !23
  %.sroa.3.0..sroa_idx = getelementptr inbounds nuw i8, ptr %0, i64 360
  tail call void @llvm.memset.p0.i64(ptr noundef nonnull align 8 dereferenceable(16) %.sroa.3.0..sroa_idx, i8 0, i64 16, i1 false)
  br label %16

16:                                               ; preds = %7, %15, %11
  ret void
}